; Function Attrs: mustprogress nounwind uwtable
define dso_local void @_ZNK5clang6driver6Action23getOffloadingKindPrefixB5cxx11Ev(ptr dead_on_unwind noalias writable sret(%"class.std::__cxx11::basic_string") align 8 %0, ptr nocapture noundef nonnull readonly align 8 dereferenceable(88) %1) local_unnamed_addr #0 align 2 {
  %3 = alloca %"class.std::allocator", align 1
  %4 = alloca %"class.std::allocator", align 1
  %5 = alloca %"class.std::allocator", align 1
  %6 = alloca %"class.std::allocator", align 1
  %7 = getelementptr inbounds nuw i8, ptr %1, i64 64
  %8 = load i32, ptr %7, align 8
  switch i32 %8, label %15 [
    i32 4, label %11
    i32 8, label %13
    i32 2, label %9
  ]

9:                                                ; preds = %2
  call void @_ZNSaIcEC1Ev(ptr noundef nonnull align 1 dereferenceable(1) %3) #11
  %10 = call noundef ptr @_ZNSt7__cxx1112basic_stringIcSt11char_traitsIcESaIcEE13_M_local_dataEv(ptr noundef nonnull align 8 dereferenceable(32) %0) #11
  call void @_ZNSt7__cxx1112basic_stringIcSt11char_traitsIcESaIcEE12_Alloc_hiderC1EPcRKS3_(ptr noundef nonnull align 8 dereferenceable(8) %0, ptr noundef %10, ptr noundef nonnull align 1 dereferenceable(1) %3) #11
  call void @_ZNSt7__cxx1112basic_stringIcSt11char_traitsIcESaIcEE12_M_constructIPKcEEvT_S8_St20forward_iterator_tag(ptr noundef nonnull align 8 dereferenceable(32) %0, ptr noundef nonnull @.str.23, ptr noundef nonnull getelementptr inbounds (i8, ptr @.str.23, i64 11))
  call void @_ZNSaIcED1Ev(ptr noundef nonnull align 1 dereferenceable(1) %3) #11
  br label %35

11:                                               ; preds = %2
  call void @_ZNSaIcEC1Ev(ptr noundef nonnull align 1 dereferenceable(1) %4) #11
  %12 = call noundef ptr @_ZNSt7__cxx1112basic_stringIcSt11char_traitsIcESaIcEE13_M_local_dataEv(ptr noundef nonnull align 8 dereferenceable(32) %0) #11
  call void @_ZNSt7__cxx1112basic_stringIcSt11char_traitsIcESaIcEE12_Alloc_hiderC1EPcRKS3_(ptr noundef nonnull align 8 dereferenceable(8) %0, ptr noundef %12, ptr noundef nonnull align 1 dereferenceable(1) %4) #11
  call void @_ZNSt7__cxx1112basic_stringIcSt11char_traitsIcESaIcEE12_M_constructIPKcEEvT_S8_St20forward_iterator_tag(ptr noundef nonnull align 8 dereferenceable(32) %0, ptr noundef nonnull @.str.24, ptr noundef nonnull getelementptr inbounds (i8, ptr @.str.24, i64 13))
  call void @_ZNSaIcED1Ev(ptr noundef nonnull align 1 dereferenceable(1) %4) #11
  br label %35

13:                                               ; preds = %2
  call void @_ZNSaIcEC1Ev(ptr noundef nonnull align 1 dereferenceable(1) %5) #11
  %14 = call noundef ptr @_ZNSt7__cxx1112basic_stringIcSt11char_traitsIcESaIcEE13_M_local_dataEv(ptr noundef nonnull align 8 dereferenceable(32) %0) #11
  call void @_ZNSt7__cxx1112basic_stringIcSt11char_traitsIcESaIcEE12_Alloc_hiderC1EPcRKS3_(ptr noundef nonnull align 8 dereferenceable(8) %0, ptr noundef %14, ptr noundef nonnull align 1 dereferenceable(1) %5) #11
  call void @_ZNSt7__cxx1112basic_stringIcSt11char_traitsIcESaIcEE12_M_constructIPKcEEvT_S8_St20forward_iterator_tag(ptr noundef nonnull align 8 dereferenceable(32) %0, ptr noundef nonnull @.str.25, ptr noundef nonnull getelementptr inbounds (i8, ptr @.str.25, i64 10))
  call void @_ZNSaIcED1Ev(ptr noundef nonnull align 1 dereferenceable(1) %5) #11
  br label %35

15:                                               ; preds = %2
  %16 = getelementptr inbounds nuw i8, ptr %1, i64 60
  %17 = load i32, ptr %16, align 4
  %.not = icmp eq i32 %17, 0
  br i1 %.not, label %18, label %19

18:                                               ; preds = %15
  tail call void @_ZNSt7__cxx1112basic_stringIcSt11char_traitsIcESaIcEEC1Ev(ptr noundef nonnull align 8 dereferenceable(32) %0) #11
  br label %35

19:                                               ; preds = %15
  call void @_ZNSaIcEC1Ev(ptr noundef nonnull align 1 dereferenceable(1) %6) #11
  %20 = call noundef ptr @_ZNSt7__cxx1112basic_stringIcSt11char_traitsIcESaIcEE13_M_local_dataEv(ptr noundef nonnull align 8 dereferenceable(32) %0) #11
  call void @_ZNSt7__cxx1112basic_stringIcSt11char_traitsIcESaIcEE12_Alloc_hiderC1EPcRKS3_(ptr noundef nonnull align 8 dereferenceable(8) %0, ptr noundef %20, ptr noundef nonnull align 1 dereferenceable(1) %6) #11
  call void @_ZNSt7__cxx1112basic_stringIcSt11char_traitsIcESaIcEE12_M_constructIPKcEEvT_S8_St20forward_iterator_tag(ptr noundef nonnull align 8 dereferenceable(32) %0, ptr noundef nonnull @.str.26, ptr noundef nonnull getelementptr inbounds (i8, ptr @.str.26, i64 4))
  call void @_ZNSaIcED1Ev(ptr noundef nonnull align 1 dereferenceable(1) %6) #11
  %21 = load i32, ptr %16, align 4
  %22 = and i32 %21, 2
  %.not2 = icmp eq i32 %22, 0
  br i1 %.not2, label %25, label %23

23:                                               ; preds = %19
  %24 = call noundef nonnull align 8 dereferenceable(32) ptr @_ZNSt7__cxx1112basic_stringIcSt11char_traitsIcESaIcEEpLEPKc(ptr noundef nonnull align 8 dereferenceable(32) %0, ptr noundef nonnull @.str.27) #11
  %.pre = load i32, ptr %16, align 4
  br label %25

25:                                               ; preds = %23, %19
  %26 = phi i32 [ %.pre, %23 ], [ %21, %19 ]
  %27 = and i32 %26, 8
  %.not3 = icmp eq i32 %27, 0
  br i1 %.not3, label %30, label %28

28:                                               ; preds = %25
  %29 = call noundef nonnull align 8 dereferenceable(32) ptr @_ZNSt7__cxx1112basic_stringIcSt11char_traitsIcESaIcEEpLEPKc(ptr noundef nonnull align 8 dereferenceable(32) %0, ptr noundef nonnull @.str.28) #11
  %.pre5 = load i32, ptr %16, align 4
  br label %30

30:                                               ; preds = %28, %25
  %31 = phi i32 [ %.pre5, %28 ], [ %26, %25 ]
  %32 = and i32 %31, 4
  %.not4 = icmp eq i32 %32, 0
  br i1 %.not4, label %35, label %33

33:                                               ; preds = %30
  %34 = call noundef nonnull align 8 dereferenceable(32) ptr @_ZNSt7__cxx1112basic_stringIcSt11char_traitsIcESaIcEEpLEPKc(ptr noundef nonnull align 8 dereferenceable(32) %0, ptr noundef nonnull @.str.29) #11
  br label %35

35:                                               ; preds = %30, %33, %18, %13, %11, %9
  ret void
}